(lp0
(lp1
F25.0567155
aF121.5839567
aa(lp2
F25.0543991
aF121.5814158
aa(lp3
F25.0538014
aF121.5798737
aa(lp4
F25.0522422
aF121.5281643
aa(lp5
F25.0567155
aF121.5839567
aa(lp6
F25.0567155
aF121.5839567
aa(lp7
F25.0567155
aF121.5839567
aa(lp8
F25.0567155
aF121.5839567
aa(lp9
F25.0615289
aF121.578688
aa(lp10
F25.06072
aF121.578116
aa(lp11
F25.0567155
aF121.5839567
aa(lp12
F45.4703687
aF-73.4702373
aa(lp13
F45.4703687
aF-73.4702373
aa(lp14
F25.0638857
aF121.5758337
aa(lp15
F25.0538014
aF121.5798737
aa(lp16
F25.0538582
aF121.5802148
aa(lp17
F25.0638857
aF121.5758337
aa.